; Function Attrs: mustprogress uwtable
define hidden noundef zeroext i1 @_ZN7specrel6solver5visitEP4expr(ptr noundef nonnull align 8 dereferenceable(128) %0, ptr noundef %1) unnamed_addr #3 align 2 {
  %3 = load ptr, ptr %0, align 8, !tbaa !388
  %4 = getelementptr inbounds nuw i8, ptr %3, i64 584
  %5 = load ptr, ptr %4, align 8
  %6 = tail call noundef zeroext i1 %5(ptr noundef nonnull align 8 dereferenceable(128) %0, ptr noundef %1)
  br i1 %6, label %24, label %7

7:                                                ; preds = %2
  %8 = getelementptr inbounds nuw i8, ptr %0, i64 64
  %9 = load ptr, ptr %8, align 8, !tbaa !419
  %10 = icmp eq ptr %9, null
  br i1 %10, label %17, label %11

11:                                               ; preds = %7
  %12 = getelementptr inbounds i8, ptr %9, i64 -4
  %13 = load i32, ptr %12, align 4, !tbaa !387
  %14 = getelementptr inbounds i8, ptr %9, i64 -8
  %15 = load i32, ptr %14, align 4, !tbaa !387
  %16 = icmp eq i32 %13, %15
  br i1 %16, label %17, label %_ZN6vectorIN3sat6eframeELb0EjE9push_backEOS1_.exit

17:                                               ; preds = %11, %7
  tail call void @_ZN6vectorIN3sat6eframeELb0EjE13expand_vectorEv(ptr noundef nonnull align 8 dereferenceable(8) %8)
  %.pre.i = load ptr, ptr %8, align 8, !tbaa !419
  %.phi.trans.insert.i = getelementptr inbounds i8, ptr %.pre.i, i64 -4
  %.pre2.i = load i32, ptr %.phi.trans.insert.i, align 4, !tbaa !387
  br label %_ZN6vectorIN3sat6eframeELb0EjE9push_backEOS1_.exit

_ZN6vectorIN3sat6eframeELb0EjE9push_backEOS1_.exit: ; preds = %11, %17
  %18 = phi i32 [ %.pre2.i, %17 ], [ %13, %11 ]
  %19 = phi ptr [ %.pre.i, %17 ], [ %9, %11 ]
  %20 = zext i32 %18 to i64
  %21 = getelementptr inbounds nuw %"struct.sat::eframe", ptr %19, i64 %20
  store ptr %1, ptr %21, align 8, !tbaa !420
  %.sroa.4.0..sroa_idx = getelementptr inbounds nuw i8, ptr %21, i64 8
  store i32 0, ptr %.sroa.4.0..sroa_idx, align 8, !tbaa !387
  %22 = getelementptr inbounds i8, ptr %19, i64 -4
  %23 = add i32 %18, 1
  store i32 %23, ptr %22, align 4, !tbaa !387
  br label %24

24:                                               ; preds = %2, %_ZN6vectorIN3sat6eframeELb0EjE9push_backEOS1_.exit
  ret i1 %6
}